target datalayout = "e-m:e-p270:32:32-p271:32:32-p272:64:64-i64:64-i128:128-f80:128-n8:16:32:64-S128"
target triple = "x86_64-pc-linux-gnu"

%struct._icmpstat_t = type { ptr, ptr, i32, i32, i32, i32, double, double, double }

; Function Attrs: alwaysinline nounwind
define internal ptr @memset.inline(ptr %0, i32 %1, i64 %2) #6 {
  %4 = alloca ptr, align 8
  %5 = alloca i32, align 4
  %6 = alloca i64, align 8
  store ptr %0, ptr %4, align 8
  store i32 %1, ptr %5, align 4
  store i64 %2, ptr %6, align 8
  %7 = load ptr, ptr %4, align 8
  %8 = load i32, ptr %5, align 4
  %9 = load i64, ptr %6, align 8
  %10 = load ptr, ptr %4, align 8
  %11 = call i64 @llvm.objectsize.i64.p0(ptr %10, i1 false, i1 true, i1 true)
  %12 = call ptr @__memset_chk(ptr noundef %7, i32 noundef %8, i64 noundef %9, i64 noundef %11) #12
  ret ptr %12
}

; Function Attrs: null_pointer_is_valid sspstrong uwtable
define internal void @icmpstat_reset(ptr noundef %0) #0 {
  %2 = alloca ptr, align 8
  %3 = alloca ptr, align 8
  store ptr %0, ptr %2, align 8
  call void @llvm.lifetime.start.p0(i64 8, ptr %3) #12
  %4 = load ptr, ptr %2, align 8
  store ptr %4, ptr %3, align 8
  %5 = load ptr, ptr %3, align 8
  %6 = getelementptr inbounds nuw %struct._icmpstat_t, ptr %5, i32 0, i32 1
  %7 = load ptr, ptr %6, align 8
  call void @g_slist_free(ptr noundef %7)
  %8 = load ptr, ptr %3, align 8
  %9 = call ptr @memset.inline(ptr noundef %8, i32 noundef 0, i64 noundef 56) #12
  %10 = load ptr, ptr %3, align 8
  %11 = getelementptr inbounds nuw %struct._icmpstat_t, ptr %10, i32 0, i32 6
  store double 0x41EFFFFFFFE00000, ptr %11, align 8
  call void @llvm.lifetime.end.p0(i64 8, ptr %3) #12
  ret void
}