; Function Attrs: null_pointer_is_valid sspstrong uwtable
define internal void @icmpstat_reset(ptr noundef %0) #0 {
  %2 = getelementptr inbounds nuw i8, ptr %0, i64 8
  %3 = load ptr, ptr %2, align 8
  tail call void @g_slist_free(ptr noundef %3)
  tail call void @llvm.memset.p0.i64(ptr noundef align 1 dereferenceable(56) %0, i8 noundef 0, i64 noundef 56, i1 noundef false) #12
  %4 = getelementptr inbounds nuw i8, ptr %0, i64 32
  store double 0x41EFFFFFFFE00000, ptr %4, align 8
  ret void
}